target datalayout = "e-m:e-p270:32:32-p271:32:32-p272:64:64-i64:64-i128:128-f80:128-n8:16:32:64-S128"
target triple = "x86_64-unknown-linux-gnu"

%"class.Imath_3_2::Vec2" = type { i32, i32 }
%"class.Imf_3_2::Image" = type { ptr, %"class.Imath_3_2::Box", i32, i32, %"class.std::map", %"class.Imf_3_2::Array2D" }
%"class.Imath_3_2::Box" = type { %"class.Imath_3_2::Vec2", %"class.Imath_3_2::Vec2" }
%"class.std::map" = type { %"class.std::_Rb_tree" }
%"class.std::_Rb_tree" = type { %"struct.std::_Rb_tree<std::__cxx11::basic_string<char>, std::pair<const std::__cxx11::basic_string<char>, Imf_3_2::Image::ChannelInfo>, std::_Select1st<std::pair<const std::__cxx11::basic_string<char>, Imf_3_2::Image::ChannelInfo>>, std::less<std::__cxx11::basic_string<char>>>::_Rb_tree_impl" }
%"struct.std::_Rb_tree<std::__cxx11::basic_string<char>, std::pair<const std::__cxx11::basic_string<char>, Imf_3_2::Image::ChannelInfo>, std::_Select1st<std::pair<const std::__cxx11::basic_string<char>, Imf_3_2::Image::ChannelInfo>>, std::less<std::__cxx11::basic_string<char>>>::_Rb_tree_impl" = type { %"struct.std::_Rb_tree_key_compare", %"struct.std::_Rb_tree_header" }
%"struct.std::_Rb_tree_key_compare" = type { %"struct.std::less" }
%"struct.std::less" = type { i8 }
%"struct.std::_Rb_tree_header" = type { %"struct.std::_Rb_tree_node_base", i64 }
%"struct.std::_Rb_tree_node_base" = type { i32, ptr, ptr, ptr }
%"class.Imf_3_2::Array2D" = type { i64, i64, ptr }

; Function Attrs: mustprogress nounwind uwtable
define linkonce_odr hidden noundef ptr @_ZNKSt8_Rb_treeINSt7__cxx1112basic_stringIcSt11char_traitsIcESaIcEEESt4pairIKS5_N7Imf_3_25Image11ChannelInfoEESt10_Select1stISB_ESt4lessIS5_ESaISB_EE9_M_mbeginEv(ptr noundef nonnull align 8 dereferenceable(48) %this) #5 comdat align 2 {
entry:
  %this.addr = alloca ptr, align 8
  store ptr %this, ptr %this.addr, align 8
  %this1 = load ptr, ptr %this.addr, align 8
  %_M_impl = getelementptr inbounds %"class.std::_Rb_tree", ptr %this1, i32 0, i32 0
  %add.ptr = getelementptr inbounds i8, ptr %_M_impl, i64 8
  %_M_header = getelementptr inbounds %"struct.std::_Rb_tree_header", ptr %add.ptr, i32 0, i32 0
  %_M_parent = getelementptr inbounds %"struct.std::_Rb_tree_node_base", ptr %_M_header, i32 0, i32 1
  %0 = load ptr, ptr %_M_parent, align 8
  ret ptr %0
}

; Function Attrs: mustprogress nounwind uwtable
define linkonce_odr hidden void @_ZNSt15_Rb_tree_header8_M_resetEv(ptr noundef nonnull align 8 dereferenceable(40) %this) #5 comdat align 2 {
entry:
  %this.addr = alloca ptr, align 8
  store ptr %this, ptr %this.addr, align 8
  %this1 = load ptr, ptr %this.addr, align 8
  %_M_header = getelementptr inbounds %"struct.std::_Rb_tree_header", ptr %this1, i32 0, i32 0
  %_M_parent = getelementptr inbounds %"struct.std::_Rb_tree_node_base", ptr %_M_header, i32 0, i32 1
  store ptr null, ptr %_M_parent, align 8
  %_M_header2 = getelementptr inbounds %"struct.std::_Rb_tree_header", ptr %this1, i32 0, i32 0
  %_M_header3 = getelementptr inbounds %"struct.std::_Rb_tree_header", ptr %this1, i32 0, i32 0
  %_M_left = getelementptr inbounds %"struct.std::_Rb_tree_node_base", ptr %_M_header3, i32 0, i32 2
  store ptr %_M_header2, ptr %_M_left, align 8
  %_M_header4 = getelementptr inbounds %"struct.std::_Rb_tree_header", ptr %this1, i32 0, i32 0
  %_M_header5 = getelementptr inbounds %"struct.std::_Rb_tree_header", ptr %this1, i32 0, i32 0
  %_M_right = getelementptr inbounds %"struct.std::_Rb_tree_node_base", ptr %_M_header5, i32 0, i32 3
  store ptr %_M_header4, ptr %_M_right, align 8
  %_M_node_count = getelementptr inbounds %"struct.std::_Rb_tree_header", ptr %this1, i32 0, i32 1
  store i64 0, ptr %_M_node_count, align 8
  ret void
}

; Function Attrs: mustprogress nounwind uwtable
define linkonce_odr hidden noundef ptr @_ZNSt8_Rb_treeINSt7__cxx1112basic_stringIcSt11char_traitsIcESaIcEEESt4pairIKS5_N7Imf_3_25Image11ChannelInfoEESt10_Select1stISB_ESt4lessIS5_ESaISB_EE8_M_beginEv(ptr noundef nonnull align 8 dereferenceable(48) %this) #5 comdat align 2 {
entry:
  %this.addr = alloca ptr, align 8
  store ptr %this, ptr %this.addr, align 8
  %this1 = load ptr, ptr %this.addr, align 8
  %call = call noundef ptr @_ZNKSt8_Rb_treeINSt7__cxx1112basic_stringIcSt11char_traitsIcESaIcEEESt4pairIKS5_N7Imf_3_25Image11ChannelInfoEESt10_Select1stISB_ESt4lessIS5_ESaISB_EE9_M_mbeginEv(ptr noundef nonnull align 8 dereferenceable(48) %this1) #3
  ret ptr %call
}

; Function Attrs: mustprogress nounwind uwtable
define linkonce_odr hidden void @_ZNSt8_Rb_treeINSt7__cxx1112basic_stringIcSt11char_traitsIcESaIcEEESt4pairIKS5_N7Imf_3_25Image11ChannelInfoEESt10_Select1stISB_ESt4lessIS5_ESaISB_EE5clearEv(ptr noundef nonnull align 8 dereferenceable(48) %this) #5 comdat align 2 personality ptr @__gxx_personality_v0 {
entry:
  %this.addr = alloca ptr, align 8
  store ptr %this, ptr %this.addr, align 8
  %this1 = load ptr, ptr %this.addr, align 8
  %call = call noundef ptr @_ZNSt8_Rb_treeINSt7__cxx1112basic_stringIcSt11char_traitsIcESaIcEEESt4pairIKS5_N7Imf_3_25Image11ChannelInfoEESt10_Select1stISB_ESt4lessIS5_ESaISB_EE8_M_beginEv(ptr noundef nonnull align 8 dereferenceable(48) %this1) #3
  invoke void @_ZNSt8_Rb_treeINSt7__cxx1112basic_stringIcSt11char_traitsIcESaIcEEESt4pairIKS5_N7Imf_3_25Image11ChannelInfoEESt10_Select1stISB_ESt4lessIS5_ESaISB_EE8_M_eraseEPSt13_Rb_tree_nodeISB_E(ptr noundef nonnull align 8 dereferenceable(48) %this1, ptr noundef %call)
          to label %invoke.cont unwind label %terminate.lpad

invoke.cont:                                      ; preds = %entry
  %_M_impl = getelementptr inbounds %"class.std::_Rb_tree", ptr %this1, i32 0, i32 0
  %add.ptr = getelementptr inbounds i8, ptr %_M_impl, i64 8
  call void @_ZNSt15_Rb_tree_header8_M_resetEv(ptr noundef nonnull align 8 dereferenceable(40) %add.ptr)
  ret void

terminate.lpad:                                   ; preds = %entry
  %0 = landingpad { ptr, i32 }
          catch ptr null
  %1 = extractvalue { ptr, i32 } %0, 0
  call void @__clang_call_terminate(ptr %1) #15
  unreachable
}

; Function Attrs: mustprogress nounwind uwtable
define linkonce_odr hidden void @_ZNSt3mapINSt7__cxx1112basic_stringIcSt11char_traitsIcESaIcEEEN7Imf_3_25Image11ChannelInfoESt4lessIS5_ESaISt4pairIKS5_S8_EEE5clearEv(ptr noundef nonnull align 8 dereferenceable(48) %this) #5 comdat align 2 {
entry:
  %this.addr = alloca ptr, align 8
  store ptr %this, ptr %this.addr, align 8
  %this1 = load ptr, ptr %this.addr, align 8
  %_M_t = getelementptr inbounds %"class.std::map", ptr %this1, i32 0, i32 0
  call void @_ZNSt8_Rb_treeINSt7__cxx1112basic_stringIcSt11char_traitsIcESaIcEEESt4pairIKS5_N7Imf_3_25Image11ChannelInfoEESt10_Select1stISB_ESt4lessIS5_ESaISB_EE5clearEv(ptr noundef nonnull align 8 dereferenceable(48) %_M_t) #3
  ret void
}

; Function Attrs: mustprogress nounwind uwtable
define linkonce_odr hidden noundef ptr @_ZN7Imf_3_27Array2DIPNS_10ImageLevelEEixEl(ptr noundef nonnull align 8 dereferenceable(24) %this, i64 noundef %x) #5 comdat align 2 {
entry:
  %this.addr = alloca ptr, align 8
  %x.addr = alloca i64, align 8
  store ptr %this, ptr %this.addr, align 8
  store i64 %x, ptr %x.addr, align 8
  %this1 = load ptr, ptr %this.addr, align 8
  %_data = getelementptr inbounds %"class.Imf_3_2::Array2D", ptr %this1, i32 0, i32 2
  %0 = load ptr, ptr %_data, align 8
  %1 = load i64, ptr %x.addr, align 8
  %_sizeY = getelementptr inbounds %"class.Imf_3_2::Array2D", ptr %this1, i32 0, i32 1
  %2 = load i64, ptr %_sizeY, align 8
  %mul = mul nsw i64 %1, %2
  %add.ptr = getelementptr inbounds ptr, ptr %0, i64 %mul
  ret ptr %add.ptr
}

; Function Attrs: mustprogress nounwind uwtable
define linkonce_odr hidden noundef i64 @_ZNK7Imf_3_27Array2DIPNS_10ImageLevelEE5widthEv(ptr noundef nonnull align 8 dereferenceable(24) %this) #5 comdat align 2 {
entry:
  %this.addr = alloca ptr, align 8
  store ptr %this, ptr %this.addr, align 8
  %this1 = load ptr, ptr %this.addr, align 8
  %_sizeY = getelementptr inbounds %"class.Imf_3_2::Array2D", ptr %this1, i32 0, i32 1
  %0 = load i64, ptr %_sizeY, align 8
  ret i64 %0
}

; Function Attrs: mustprogress nounwind uwtable
define linkonce_odr hidden noundef i64 @_ZNK7Imf_3_27Array2DIPNS_10ImageLevelEE6heightEv(ptr noundef nonnull align 8 dereferenceable(24) %this) #5 comdat align 2 {
entry:
  %this.addr = alloca ptr, align 8
  store ptr %this, ptr %this.addr, align 8
  %this1 = load ptr, ptr %this.addr, align 8
  %_sizeX = getelementptr inbounds %"class.Imf_3_2::Array2D", ptr %this1, i32 0, i32 0
  %0 = load i64, ptr %_sizeX, align 8
  ret i64 %0
}

; Function Attrs: mustprogress uwtable
define void @_ZN7Imf_3_25Image13clearChannelsEv(ptr noundef nonnull align 8 dereferenceable(104) %this) #4 align 2 {
entry:
  %this.addr = alloca ptr, align 8
  %y = alloca i32, align 4
  %x = alloca i32, align 4
  store ptr %this, ptr %this.addr, align 8
  %this1 = load ptr, ptr %this.addr, align 8
  store i32 0, ptr %y, align 4
  br label %for.cond

for.cond:                                         ; preds = %for.inc16, %entry
  %0 = load i32, ptr %y, align 4
  %conv = sext i32 %0 to i64
  %_levels = getelementptr inbounds %"class.Imf_3_2::Image", ptr %this1, i32 0, i32 5
  %call = call noundef i64 @_ZNK7Imf_3_27Array2DIPNS_10ImageLevelEE6heightEv(ptr noundef nonnull align 8 dereferenceable(24) %_levels)
  %cmp = icmp slt i64 %conv, %call
  br i1 %cmp, label %for.body, label %for.end18

for.body:                                         ; preds = %for.cond
  store i32 0, ptr %x, align 4
  br label %for.cond2

for.cond2:                                        ; preds = %for.inc, %for.body
  %1 = load i32, ptr %x, align 4
  %conv3 = sext i32 %1 to i64
  %_levels4 = getelementptr inbounds %"class.Imf_3_2::Image", ptr %this1, i32 0, i32 5
  %call5 = call noundef i64 @_ZNK7Imf_3_27Array2DIPNS_10ImageLevelEE5widthEv(ptr noundef nonnull align 8 dereferenceable(24) %_levels4)
  %cmp6 = icmp slt i64 %conv3, %call5
  br i1 %cmp6, label %for.body7, label %for.end

for.body7:                                        ; preds = %for.cond2
  %_levels8 = getelementptr inbounds %"class.Imf_3_2::Image", ptr %this1, i32 0, i32 5
  %2 = load i32, ptr %y, align 4
  %conv9 = sext i32 %2 to i64
  %call10 = call noundef ptr @_ZN7Imf_3_27Array2DIPNS_10ImageLevelEEixEl(ptr noundef nonnull align 8 dereferenceable(24) %_levels8, i64 noundef %conv9)
  %3 = load i32, ptr %x, align 4
  %idxprom = sext i32 %3 to i64
  %arrayidx = getelementptr inbounds ptr, ptr %call10, i64 %idxprom
  %4 = load ptr, ptr %arrayidx, align 8
  %tobool = icmp ne ptr %4, null
  br i1 %tobool, label %if.then, label %if.end

if.then:                                          ; preds = %for.body7
  %_levels11 = getelementptr inbounds %"class.Imf_3_2::Image", ptr %this1, i32 0, i32 5
  %5 = load i32, ptr %y, align 4
  %conv12 = sext i32 %5 to i64
  %call13 = call noundef ptr @_ZN7Imf_3_27Array2DIPNS_10ImageLevelEEixEl(ptr noundef nonnull align 8 dereferenceable(24) %_levels11, i64 noundef %conv12)
  %6 = load i32, ptr %x, align 4
  %idxprom14 = sext i32 %6 to i64
  %arrayidx15 = getelementptr inbounds ptr, ptr %call13, i64 %idxprom14
  %7 = load ptr, ptr %arrayidx15, align 8
  %vtable = load ptr, ptr %7, align 8
  %vfn = getelementptr inbounds ptr, ptr %vtable, i64 6
  %8 = load ptr, ptr %vfn, align 8
  call void %8(ptr noundef nonnull align 8 dereferenceable(40) %7)
  br label %if.end

if.end:                                           ; preds = %if.then, %for.body7
  br label %for.inc

for.inc:                                          ; preds = %if.end
  %9 = load i32, ptr %x, align 4
  %inc = add nsw i32 %9, 1
  store i32 %inc, ptr %x, align 4
  br label %for.cond2, !llvm.loop !7

for.end:                                          ; preds = %for.cond2
  br label %for.inc16

for.inc16:                                        ; preds = %for.end
  %10 = load i32, ptr %y, align 4
  %inc17 = add nsw i32 %10, 1
  store i32 %inc17, ptr %y, align 4
  br label %for.cond, !llvm.loop !8

for.end18:                                        ; preds = %for.cond
  %_channels = getelementptr inbounds %"class.Imf_3_2::Image", ptr %this1, i32 0, i32 4
  call void @_ZNSt3mapINSt7__cxx1112basic_stringIcSt11char_traitsIcESaIcEEEN7Imf_3_25Image11ChannelInfoESt4lessIS5_ESaISt4pairIKS5_S8_EEE5clearEv(ptr noundef nonnull align 8 dereferenceable(48) %_channels) #3
  ret void
}