; Function Attrs: mustprogress uwtable
define void @_ZN7Imf_3_25Image13clearChannelsEv(ptr noundef nonnull align 8 dereferenceable(104) %this) local_unnamed_addr #6 align 2 personality ptr @__gxx_personality_v0 {
entry:
  %_levels = getelementptr inbounds i8, ptr %this, i64 80
  %0 = load i64, ptr %_levels, align 8
  %cmp15 = icmp sgt i64 %0, 0
  br i1 %cmp15, label %for.cond2.preheader.lr.ph, label %for.end18

for.cond2.preheader.lr.ph:                        ; preds = %entry
  %_sizeY.i = getelementptr inbounds i8, ptr %this, i64 88
  %_data.i = getelementptr inbounds i8, ptr %this, i64 96
  %1 = load i64, ptr %_sizeY.i, align 8
  %2 = icmp sgt i64 %1, 0
  br i1 %2, label %for.cond2.preheader, label %for.end18

for.cond2.preheader:                              ; preds = %for.cond2.preheader.lr.ph, %for.inc16
  %3 = phi i64 [ %12, %for.inc16 ], [ %0, %for.cond2.preheader.lr.ph ]
  %4 = phi i64 [ %13, %for.inc16 ], [ %1, %for.cond2.preheader.lr.ph ]
  %5 = phi i64 [ %14, %for.inc16 ], [ %1, %for.cond2.preheader.lr.ph ]
  %indvars.iv21 = phi i64 [ %indvars.iv.next22, %for.inc16 ], [ 0, %for.cond2.preheader.lr.ph ]
  %cmp612 = icmp sgt i64 %5, 0
  br i1 %cmp612, label %for.body7, label %for.inc16

for.body7:                                        ; preds = %for.cond2.preheader, %for.inc
  %6 = phi i64 [ %11, %for.inc ], [ %4, %for.cond2.preheader ]
  %indvars.iv = phi i64 [ %indvars.iv.next, %for.inc ], [ 0, %for.cond2.preheader ]
  %7 = phi i64 [ %11, %for.inc ], [ %5, %for.cond2.preheader ]
  %8 = load ptr, ptr %_data.i, align 8
  %mul.i = mul nsw i64 %7, %indvars.iv21
  %add.ptr.i = getelementptr inbounds ptr, ptr %8, i64 %mul.i
  %arrayidx = getelementptr inbounds ptr, ptr %add.ptr.i, i64 %indvars.iv
  %9 = load ptr, ptr %arrayidx, align 8
  %tobool.not = icmp eq ptr %9, null
  br i1 %tobool.not, label %for.inc, label %if.then

if.then:                                          ; preds = %for.body7
  %vtable = load ptr, ptr %9, align 8
  %vfn = getelementptr inbounds i8, ptr %vtable, i64 48
  %10 = load ptr, ptr %vfn, align 8
  tail call void %10(ptr noundef nonnull align 8 dereferenceable(40) %9)
  %.pre = load i64, ptr %_sizeY.i, align 8
  br label %for.inc

for.inc:                                          ; preds = %for.body7, %if.then
  %11 = phi i64 [ %6, %for.body7 ], [ %.pre, %if.then ]
  %indvars.iv.next = add nuw nsw i64 %indvars.iv, 1
  %cmp6 = icmp sgt i64 %11, %indvars.iv.next
  br i1 %cmp6, label %for.body7, label %for.inc16.loopexit, !llvm.loop !8

for.inc16.loopexit:                               ; preds = %for.inc
  %.pre24 = load i64, ptr %_levels, align 8
  br label %for.inc16

for.inc16:                                        ; preds = %for.inc16.loopexit, %for.cond2.preheader
  %12 = phi i64 [ %.pre24, %for.inc16.loopexit ], [ %3, %for.cond2.preheader ]
  %13 = phi i64 [ %11, %for.inc16.loopexit ], [ %4, %for.cond2.preheader ]
  %14 = phi i64 [ %11, %for.inc16.loopexit ], [ %5, %for.cond2.preheader ]
  %indvars.iv.next22 = add nuw nsw i64 %indvars.iv21, 1
  %cmp = icmp sgt i64 %12, %indvars.iv.next22
  br i1 %cmp, label %for.cond2.preheader, label %for.end18, !llvm.loop !9

for.end18:                                        ; preds = %for.inc16, %for.cond2.preheader.lr.ph, %entry
  %_channels = getelementptr inbounds i8, ptr %this, i64 32
  %_M_parent.i.i.i.i = getelementptr inbounds i8, ptr %this, i64 48
  %15 = load ptr, ptr %_M_parent.i.i.i.i, align 8
  invoke void @_ZNSt8_Rb_treeINSt7__cxx1112basic_stringIcSt11char_traitsIcESaIcEEESt4pairIKS5_N7Imf_3_25Image11ChannelInfoEESt10_Select1stISB_ESt4lessIS5_ESaISB_EE8_M_eraseEPSt13_Rb_tree_nodeISB_E(ptr noundef nonnull align 8 dereferenceable(48) %_channels, ptr noundef %15)
          to label %_ZNSt3mapINSt7__cxx1112basic_stringIcSt11char_traitsIcESaIcEEEN7Imf_3_25Image11ChannelInfoESt4lessIS5_ESaISt4pairIKS5_S8_EEE5clearEv.exit unwind label %terminate.lpad.i.i

terminate.lpad.i.i:                               ; preds = %for.end18
  %16 = landingpad { ptr, i32 }
          catch ptr null
  %17 = extractvalue { ptr, i32 } %16, 0
  tail call void @__clang_call_terminate(ptr %17) #21
  unreachable

_ZNSt3mapINSt7__cxx1112basic_stringIcSt11char_traitsIcESaIcEEEN7Imf_3_25Image11ChannelInfoESt4lessIS5_ESaISt4pairIKS5_S8_EEE5clearEv.exit: ; preds = %for.end18
  %add.ptr.i.i = getelementptr inbounds i8, ptr %this, i64 40
  store ptr null, ptr %_M_parent.i.i.i.i, align 8
  %_M_left.i.i.i = getelementptr inbounds i8, ptr %this, i64 56
  store ptr %add.ptr.i.i, ptr %_M_left.i.i.i, align 8
  %_M_right.i.i.i = getelementptr inbounds i8, ptr %this, i64 64
  store ptr %add.ptr.i.i, ptr %_M_right.i.i.i, align 8
  %_M_node_count.i.i.i = getelementptr inbounds i8, ptr %this, i64 72
  store i64 0, ptr %_M_node_count.i.i.i, align 8
  ret void
}